; Function Attrs: nounwind uwtable
define ptr @l_Lake_InputDirConfig_filter___proj___elambda__3(ptr readnone captures(none) %0, ptr noundef %1, ptr noundef %2) local_unnamed_addr #1 {
  %.val = load i32, ptr %2, align 4, !tbaa !8
  %4 = icmp eq i32 %.val, 1
  br i1 %4, label %5, label %17

5:                                                ; preds = %3
  %6 = getelementptr inbounds nuw i8, ptr %2, i64 16
  %7 = load ptr, ptr %6, align 8, !tbaa !4
  %8 = ptrtoint ptr %7 to i64
  %9 = and i64 %8, 1
  %.not23 = icmp eq i64 %9, 0
  br i1 %.not23, label %10, label %lean_dec.exit18

10:                                               ; preds = %5
  %11 = load i32, ptr %7, align 4, !tbaa !8
  %12 = icmp sgt i32 %11, 1
  br i1 %12, label %13, label %15, !prof !12

13:                                               ; preds = %10
  %14 = add nsw i32 %11, -1
  store i32 %14, ptr %7, align 4, !tbaa !8
  br label %lean_dec.exit18

15:                                               ; preds = %10
  %.not.i = icmp eq i32 %11, 0
  br i1 %.not.i, label %lean_dec.exit18, label %16

16:                                               ; preds = %15
  tail call void @lean_dec_ref_cold(ptr noundef nonnull %7) #7
  br label %lean_dec.exit18

lean_dec.exit18:                                  ; preds = %16, %15, %13, %5
  store ptr %1, ptr %6, align 8, !tbaa !4
  br label %46

17:                                               ; preds = %3
  %18 = getelementptr inbounds nuw i8, ptr %2, i64 8
  %19 = load ptr, ptr %18, align 8, !tbaa !4
  %20 = getelementptr inbounds nuw i8, ptr %2, i64 24
  %21 = load i8, ptr %20, align 1, !tbaa !11
  %22 = ptrtoint ptr %19 to i64
  %23 = and i64 %22, 1
  %.not = icmp eq i64 %23, 0
  br i1 %.not, label %24, label %lean_inc.exit

24:                                               ; preds = %17
  %.val.i = load i32, ptr %19, align 4, !tbaa !8
  %25 = icmp sgt i32 %.val.i, 0
  br i1 %25, label %26, label %28, !prof !12

26:                                               ; preds = %24
  %27 = add nuw i32 %.val.i, 1
  store i32 %27, ptr %19, align 4, !tbaa !8
  br label %lean_inc.exit

28:                                               ; preds = %24
  %.not.i21 = icmp eq i32 %.val.i, 0
  br i1 %.not.i21, label %lean_inc.exit, label %29

29:                                               ; preds = %28
  tail call void @lean_inc_ref_cold(ptr noundef nonnull %19) #7
  br label %lean_inc.exit

lean_inc.exit:                                    ; preds = %29, %28, %26, %17
  %30 = ptrtoint ptr %2 to i64
  %31 = and i64 %30, 1
  %.not22 = icmp eq i64 %31, 0
  br i1 %.not22, label %32, label %lean_dec.exit

32:                                               ; preds = %lean_inc.exit
  %33 = load i32, ptr %2, align 4, !tbaa !8
  %34 = icmp sgt i32 %33, 1
  br i1 %34, label %35, label %37, !prof !12

35:                                               ; preds = %32
  %36 = add nsw i32 %33, -1
  store i32 %36, ptr %2, align 4, !tbaa !8
  br label %lean_dec.exit

37:                                               ; preds = %32
  %.not.i19 = icmp eq i32 %33, 0
  br i1 %.not.i19, label %lean_dec.exit, label %38

38:                                               ; preds = %37
  tail call void @lean_dec_ref_cold(ptr noundef nonnull %2) #7
  br label %lean_dec.exit

lean_dec.exit:                                    ; preds = %38, %37, %35, %lean_inc.exit
  tail call void @lean_inc_heartbeat() #7
  %39 = tail call noalias ptr @mi_malloc_small(i64 noundef 32) #7
  %40 = icmp eq ptr %39, null
  br i1 %40, label %41, label %lean_alloc_ctor.exit

41:                                               ; preds = %lean_dec.exit
  tail call void @lean_internal_panic_out_of_memory() #8
  unreachable

lean_alloc_ctor.exit:                             ; preds = %lean_dec.exit
  %42 = getelementptr inbounds nuw i8, ptr %39, i64 4
  %43 = getelementptr inbounds nuw i8, ptr %39, i64 24
  store i64 0, ptr %43, align 8, !tbaa !13
  store i32 1, ptr %39, align 4, !tbaa !8
  store i32 131104, ptr %42, align 4
  %44 = getelementptr inbounds nuw i8, ptr %39, i64 8
  store ptr %19, ptr %44, align 8, !tbaa !4
  %45 = getelementptr inbounds nuw i8, ptr %39, i64 16
  store ptr %1, ptr %45, align 8, !tbaa !4
  store i8 %21, ptr %43, align 1, !tbaa !11
  br label %46

46:                                               ; preds = %lean_alloc_ctor.exit, %lean_dec.exit18
  %.0 = phi ptr [ %2, %lean_dec.exit18 ], [ %39, %lean_alloc_ctor.exit ]
  ret ptr %.0
}